target datalayout = "e-m:e-p270:32:32-p271:32:32-p272:64:64-i64:64-i128:128-f80:128-n8:16:32:64-S128"
target triple = "x86_64-pc-linux-gnu"

%"struct.dmlc::LogMessageFatal::Entry" = type { %"class.std::__cxx11::basic_ostringstream" }
%"class.std::__cxx11::basic_ostringstream" = type { %"class.std::basic_ostream.base", %"class.std::__cxx11::basic_stringbuf", %"class.std::basic_ios" }
%"class.std::basic_ostream.base" = type { ptr }
%"class.std::__cxx11::basic_stringbuf" = type { %"class.std::basic_streambuf", i32, %"class.std::__cxx11::basic_string" }
%"class.std::basic_streambuf" = type { ptr, ptr, ptr, ptr, ptr, ptr, ptr, %"class.std::locale" }
%"class.std::locale" = type { ptr }
%"class.std::__cxx11::basic_string" = type { %"struct.std::__cxx11::basic_string<char>::_Alloc_hider", i64, %union.anon }
%"struct.std::__cxx11::basic_string<char>::_Alloc_hider" = type { ptr }
%union.anon = type { i64, [8 x i8] }
%"class.std::basic_ios" = type { %"class.std::ios_base", ptr, i8, i8, ptr, ptr, ptr, ptr }
%"class.std::ios_base" = type { ptr, i64, i64, i32, i32, i32, ptr, %"struct.std::ios_base::_Words", [8 x %"struct.std::ios_base::_Words"], i32, ptr, %"class.std::locale" }
%"struct.std::ios_base::_Words" = type { ptr, i64 }
%"class.xgboost::common::Span" = type { i64, ptr }
%"class.dmlc::LogMessageFatal" = type { i8 }
%"struct.std::pair" = type <{ double, i32, [4 x i8] }>

@.str.27 = private unnamed_addr constant [123 x i8] c"generated/home/dtcxzyw/WorkSpace/Projects/compilers/llvm-opt-benchmark/bench/xgboost/xgboost/src/metric/../common/common.h\00", align 1
@.str.28 = private unnamed_addr constant [47 x i8] c"XGBoost version not compiled with GPU support.\00", align 1

; Function Attrs: inlinehint mustprogress nounwind uwtable
define linkonce_odr noundef i32 @_ZStorSt12_Ios_IostateS_(i32 noundef %0, i32 noundef %1) #12 comdat {
  %3 = alloca i32, align 4
  %4 = alloca i32, align 4
  store i32 %0, ptr %3, align 4, !tbaa !256
  store i32 %1, ptr %4, align 4, !tbaa !256
  %5 = load i32, ptr %3, align 4, !tbaa !256
  %6 = load i32, ptr %4, align 4, !tbaa !256
  %7 = or i32 %5, %6
  ret i32 %7
}

; Function Attrs: mustprogress nounwind uwtable
define available_externally noundef i32 @_ZNKSt9basic_iosIcSt11char_traitsIcEE7rdstateEv(ptr noundef nonnull align 8 dereferenceable(264) %0) #4 align 2 {
  %2 = alloca ptr, align 8
  store ptr %0, ptr %2, align 8, !tbaa !114
  %3 = load ptr, ptr %2, align 8
  %4 = getelementptr inbounds nuw %"class.std::ios_base", ptr %3, i32 0, i32 5
  %5 = load i32, ptr %4, align 8, !tbaa !257
  ret i32 %5
}

; Function Attrs: mustprogress nounwind uwtable
define linkonce_odr noundef i64 @_ZNSt11char_traitsIcE6lengthEPKc(ptr noundef %0) #4 comdat align 2 {
  %2 = alloca ptr, align 8
  store ptr %0, ptr %2, align 8, !tbaa !58
  %3 = load ptr, ptr %2, align 8, !tbaa !58
  %4 = call i64 @strlen(ptr noundef %3) #3
  ret i64 %4
}

; Function Attrs: mustprogress uwtable
define available_externally void @_ZNSt9basic_iosIcSt11char_traitsIcEE8setstateESt12_Ios_Iostate(ptr noundef nonnull align 8 dereferenceable(264) %0, i32 noundef %1) #5 align 2 {
  %3 = alloca ptr, align 8
  %4 = alloca i32, align 4
  store ptr %0, ptr %3, align 8, !tbaa !114
  store i32 %1, ptr %4, align 4, !tbaa !256
  %5 = load ptr, ptr %3, align 8
  %6 = call noundef i32 @_ZNKSt9basic_iosIcSt11char_traitsIcEE7rdstateEv(ptr noundef nonnull align 8 dereferenceable(264) %5)
  %7 = load i32, ptr %4, align 4, !tbaa !256
  %8 = call noundef i32 @_ZStorSt12_Ios_IostateS_(i32 noundef %6, i32 noundef %7)
  call void @_ZNSt9basic_iosIcSt11char_traitsIcEE5clearESt12_Ios_Iostate(ptr noundef nonnull align 8 dereferenceable(264) %5, i32 noundef %8)
  ret void
}

; Function Attrs: inlinehint mustprogress uwtable
define available_externally noundef nonnull align 8 dereferenceable(8) ptr @_ZStlsISt11char_traitsIcEERSt13basic_ostreamIcT_ES5_PKc(ptr noundef nonnull align 8 dereferenceable(8) %0, ptr noundef %1) #8 {
  %3 = alloca ptr, align 8
  %4 = alloca ptr, align 8
  store ptr %0, ptr %3, align 8, !tbaa !56
  store ptr %1, ptr %4, align 8, !tbaa !58
  %5 = load ptr, ptr %4, align 8, !tbaa !58
  %6 = icmp ne ptr %5, null
  br i1 %6, label %13, label %7

7:                                                ; preds = %2
  %8 = load ptr, ptr %3, align 8, !tbaa !56
  %9 = load ptr, ptr %8, align 8, !tbaa !60
  %10 = getelementptr i8, ptr %9, i64 -24
  %11 = load i64, ptr %10, align 8
  %12 = getelementptr inbounds i8, ptr %8, i64 %11
  call void @_ZNSt9basic_iosIcSt11char_traitsIcEE8setstateESt12_Ios_Iostate(ptr noundef nonnull align 8 dereferenceable(264) %12, i32 noundef 1)
  br label %19

13:                                               ; preds = %2
  %14 = load ptr, ptr %3, align 8, !tbaa !56
  %15 = load ptr, ptr %4, align 8, !tbaa !58
  %16 = load ptr, ptr %4, align 8, !tbaa !58
  %17 = call noundef i64 @_ZNSt11char_traitsIcE6lengthEPKc(ptr noundef %16)
  %18 = call noundef nonnull align 8 dereferenceable(8) ptr @_ZSt16__ostream_insertIcSt11char_traitsIcEERSt13basic_ostreamIT_T0_ES6_PKS3_l(ptr noundef nonnull align 8 dereferenceable(8) %14, ptr noundef %15, i64 noundef %17)
  br label %19

19:                                               ; preds = %13, %7
  %20 = load ptr, ptr %3, align 8, !tbaa !56
  ret ptr %20
}

; Function Attrs: mustprogress uwtable
define linkonce_odr noundef nonnull align 8 dereferenceable(112) ptr @_ZN4dmlc15LogMessageFatal6streamB5cxx11Ev(ptr noundef nonnull align 1 dereferenceable(1) %0) #5 comdat align 2 {
  %2 = alloca ptr, align 8
  store ptr %0, ptr %2, align 8, !tbaa !64
  %3 = load ptr, ptr %2, align 8
  %4 = call noundef nonnull align 8 dereferenceable(376) ptr @_ZN4dmlc15LogMessageFatal8GetEntryEv(ptr noundef nonnull align 1 dereferenceable(1) %3)
  %5 = getelementptr inbounds nuw %"struct.dmlc::LogMessageFatal::Entry", ptr %4, i32 0, i32 0
  ret ptr %5
}

; Function Attrs: mustprogress uwtable
define linkonce_odr void @_ZN4dmlc15LogMessageFatalC2EPKci(ptr noundef nonnull align 1 dereferenceable(1) %0, ptr noundef %1, i32 noundef %2) unnamed_addr #5 comdat align 2 {
  %4 = alloca ptr, align 8
  %5 = alloca ptr, align 8
  %6 = alloca i32, align 4
  store ptr %0, ptr %4, align 8, !tbaa !64
  store ptr %1, ptr %5, align 8, !tbaa !58
  store i32 %2, ptr %6, align 4, !tbaa !35
  %7 = load ptr, ptr %4, align 8
  %8 = call noundef nonnull align 8 dereferenceable(376) ptr @_ZN4dmlc15LogMessageFatal8GetEntryEv(ptr noundef nonnull align 1 dereferenceable(1) %7)
  %9 = load ptr, ptr %5, align 8, !tbaa !58
  %10 = load i32, ptr %6, align 4, !tbaa !35
  call void @_ZN4dmlc15LogMessageFatal5Entry4InitEPKci(ptr noundef nonnull align 8 dereferenceable(376) %8, ptr noundef %9, i32 noundef %10)
  ret void
}

; Function Attrs: mustprogress nounwind uwtable
define linkonce_odr void @_ZNSt4pairIdjEC2IdjTnNSt9enable_ifIXsr6__and_ISt37__is_implicitly_default_constructibleIT_ES3_IT0_EEE5valueEbE4typeELb1EEEv(ptr noundef nonnull align 8 dereferenceable(12) %0) unnamed_addr #4 comdat align 2 {
  %2 = alloca ptr, align 8
  store ptr %0, ptr %2, align 8, !tbaa !104
  %3 = load ptr, ptr %2, align 8
  %4 = getelementptr inbounds nuw %"struct.std::pair", ptr %3, i32 0, i32 0
  store double 0.000000e+00, ptr %4, align 8, !tbaa !106
  %5 = getelementptr inbounds nuw %"struct.std::pair", ptr %3, i32 0, i32 1
  store i32 0, ptr %5, align 8, !tbaa !108
  ret void
}

; Function Attrs: inlinehint mustprogress uwtable
define linkonce_odr void @_ZN7xgboost6common16AssertGPUSupportEv() #8 comdat personality ptr @__gxx_personality_v0 {
  %1 = alloca %"class.dmlc::LogMessageFatal", align 1
  %2 = alloca ptr, align 8
  %3 = alloca i32, align 4
  call void @llvm.lifetime.start.p0(i64 1, ptr %1) #3
  call void @_ZN4dmlc15LogMessageFatalC2EPKci(ptr noundef nonnull align 1 dereferenceable(1) %1, ptr noundef @.str.27, i32 noundef 168)
  %4 = invoke noundef nonnull align 8 dereferenceable(112) ptr @_ZN4dmlc15LogMessageFatal6streamB5cxx11Ev(ptr noundef nonnull align 1 dereferenceable(1) %1)
          to label %5 unwind label %8

5:                                                ; preds = %0
  %6 = invoke noundef nonnull align 8 dereferenceable(8) ptr @_ZStlsISt11char_traitsIcEERSt13basic_ostreamIcT_ES5_PKc(ptr noundef nonnull align 8 dereferenceable(8) %4, ptr noundef @.str.28)
          to label %7 unwind label %8

7:                                                ; preds = %5
  call void @_ZN4dmlc15LogMessageFatalD2Ev(ptr noundef nonnull align 1 dereferenceable(1) %1)
  call void @llvm.lifetime.end.p0(i64 1, ptr %1) #3
  ret void

8:                                                ; preds = %5, %0
  %9 = landingpad { ptr, i32 }
          cleanup
  %10 = extractvalue { ptr, i32 } %9, 0
  store ptr %10, ptr %2, align 8
  %11 = extractvalue { ptr, i32 } %9, 1
  store i32 %11, ptr %3, align 4
  invoke void @_ZN4dmlc15LogMessageFatalD2Ev(ptr noundef nonnull align 1 dereferenceable(1) %1)
          to label %12 unwind label %18

12:                                               ; preds = %8
  call void @llvm.lifetime.end.p0(i64 1, ptr %1) #3
  br label %13

13:                                               ; preds = %12
  %14 = load ptr, ptr %2, align 8
  %15 = load i32, ptr %3, align 4
  %16 = insertvalue { ptr, i32 } poison, ptr %14, 0
  %17 = insertvalue { ptr, i32 } %16, i32 %15, 1
  resume { ptr, i32 } %17

18:                                               ; preds = %8
  %19 = landingpad { ptr, i32 }
          catch ptr null
  %20 = extractvalue { ptr, i32 } %19, 0
  call void @__clang_call_terminate(ptr %20) #28
  unreachable
}

; Function Attrs: mustprogress uwtable
define { double, i32 } @_ZN7xgboost6metric13GPURankingAUCEPKNS_7ContextENS_6common4SpanIKfLm18446744073709551615EEERKNS_8MetaInfoEPSt10shared_ptrINS0_14DeviceAUCCacheEE(ptr noundef %0, i64 %1, ptr %2, ptr noundef nonnull align 8 dereferenceable(233) %3, ptr noundef %4) #5 {
  %6 = alloca %"struct.std::pair", align 8
  %7 = alloca %"class.xgboost::common::Span", align 8
  %8 = alloca ptr, align 8
  %9 = alloca ptr, align 8
  %10 = alloca ptr, align 8
  %11 = getelementptr inbounds nuw { i64, ptr }, ptr %7, i32 0, i32 0
  store i64 %1, ptr %11, align 8
  %12 = getelementptr inbounds nuw { i64, ptr }, ptr %7, i32 0, i32 1
  store ptr %2, ptr %12, align 8
  store ptr %0, ptr %8, align 8, !tbaa !3
  store ptr %3, ptr %9, align 8, !tbaa !100
  store ptr %4, ptr %10, align 8, !tbaa !102
  call void @_ZN7xgboost6common16AssertGPUSupportEv()
  call void @_ZNSt4pairIdjEC2IdjTnNSt9enable_ifIXsr6__and_ISt37__is_implicitly_default_constructibleIT_ES3_IT0_EEE5valueEbE4typeELb1EEEv(ptr noundef nonnull align 8 dereferenceable(12) %6)
  %13 = load { double, i32 }, ptr %6, align 8
  ret { double, i32 } %13
}