; Function Attrs: mustprogress uwtable
define { double, i32 } @_ZN7xgboost6metric13GPURankingAUCEPKNS_7ContextENS_6common4SpanIKfLm18446744073709551615EEERKNS_8MetaInfoEPSt10shared_ptrINS0_14DeviceAUCCacheEE(ptr noundef readnone captures(none) %0, i64 %1, ptr readnone captures(none) %2, ptr noundef nonnull readnone align 8 captures(none) dereferenceable(233) %3, ptr noundef readnone captures(none) %4) local_unnamed_addr #4 personality ptr @__gxx_personality_v0 {
  %6 = alloca %"class.dmlc::LogMessageFatal", align 1
  call void @llvm.lifetime.start.p0(i64 1, ptr nonnull %6) #14
  %7 = call noundef nonnull align 8 dereferenceable(376) ptr @_ZN4dmlc15LogMessageFatal8GetEntryEv(ptr noundef nonnull align 1 dereferenceable(1) %6)
  call void @_ZN4dmlc15LogMessageFatal5Entry4InitEPKci(ptr noundef nonnull align 8 dereferenceable(376) %7, ptr noundef nonnull @.str.27, i32 noundef 168)
  %8 = invoke noundef nonnull align 8 dereferenceable(376) ptr @_ZN4dmlc15LogMessageFatal8GetEntryEv(ptr noundef nonnull align 1 dereferenceable(1) %6)
          to label %_ZN4dmlc15LogMessageFatal6streamB5cxx11Ev.exit.i unwind label %10

_ZN4dmlc15LogMessageFatal6streamB5cxx11Ev.exit.i: ; preds = %5
  %9 = invoke noundef nonnull align 8 dereferenceable(8) ptr @_ZSt16__ostream_insertIcSt11char_traitsIcEERSt13basic_ostreamIT_T0_ES6_PKS3_l(ptr noundef nonnull align 8 dereferenceable(8) %8, ptr noundef nonnull @.str.28, i64 noundef 46)
          to label %_ZN7xgboost6common16AssertGPUSupportEv.exit unwind label %10

10:                                               ; preds = %_ZN4dmlc15LogMessageFatal6streamB5cxx11Ev.exit.i, %5
  %11 = landingpad { ptr, i32 }
          cleanup
  invoke void @_ZN4dmlc15LogMessageFatalD2Ev(ptr noundef nonnull align 1 dereferenceable(1) %6)
          to label %12 unwind label %13

12:                                               ; preds = %10
  call void @llvm.lifetime.end.p0(i64 1, ptr nonnull %6) #14
  resume { ptr, i32 } %11

13:                                               ; preds = %10
  %14 = landingpad { ptr, i32 }
          catch ptr null
  %15 = extractvalue { ptr, i32 } %14, 0
  call void @__clang_call_terminate(ptr %15) #38
  unreachable

_ZN7xgboost6common16AssertGPUSupportEv.exit:      ; preds = %_ZN4dmlc15LogMessageFatal6streamB5cxx11Ev.exit.i
  call void @_ZN4dmlc15LogMessageFatalD2Ev(ptr noundef nonnull align 1 dereferenceable(1) %6)
  call void @llvm.lifetime.end.p0(i64 1, ptr nonnull %6) #14
  ret { double, i32 } zeroinitializer
}